target datalayout = "e-m:e-p270:32:32-p271:32:32-p272:64:64-i64:64-i128:128-f80:128-n8:16:32:64-S128"
target triple = "x86_64-pc-linux-gnu"

%struct.lxb_ns_data_t = type { %struct.lexbor_hash_entry, i64, i64, i8 }
%struct.lexbor_hash_entry = type { %union.anon, i64, ptr }
%union.anon = type { ptr, [16 x i8] }

; Function Attrs: nounwind uwtable
define internal ptr @lexbor_hash_entry_str(ptr noundef %0) #0 {
  %2 = alloca ptr, align 8
  %3 = alloca ptr, align 8
  store ptr %0, ptr %3, align 8
  %4 = load ptr, ptr %3, align 8
  %5 = getelementptr inbounds %struct.lexbor_hash_entry, ptr %4, i32 0, i32 1
  %6 = load i64, ptr %5, align 8
  %7 = icmp ule i64 %6, 16
  br i1 %7, label %8, label %12

8:                                                ; preds = %1
  %9 = load ptr, ptr %3, align 8
  %10 = getelementptr inbounds %struct.lexbor_hash_entry, ptr %9, i32 0, i32 0
  %11 = getelementptr inbounds [17 x i8], ptr %10, i64 0, i64 0
  store ptr %11, ptr %2, align 8
  br label %16

12:                                               ; preds = %1
  %13 = load ptr, ptr %3, align 8
  %14 = getelementptr inbounds %struct.lexbor_hash_entry, ptr %13, i32 0, i32 0
  %15 = load ptr, ptr %14, align 8
  store ptr %15, ptr %2, align 8
  br label %16

16:                                               ; preds = %12, %8
  %17 = load ptr, ptr %2, align 8
  ret ptr %17
}

; Function Attrs: nounwind uwtable
define hidden ptr @lxb_ns_data_by_id(ptr noundef %0, i64 noundef %1) #0 {
  %3 = alloca ptr, align 8
  %4 = alloca ptr, align 8
  %5 = alloca i64, align 8
  store ptr %0, ptr %4, align 8
  store i64 %1, ptr %5, align 8
  %6 = load i64, ptr %5, align 8
  %7 = icmp uge i64 %6, 8
  br i1 %7, label %8, label %15

8:                                                ; preds = %2
  %9 = load i64, ptr %5, align 8
  %10 = icmp eq i64 %9, 8
  br i1 %10, label %11, label %12

11:                                               ; preds = %8
  store ptr null, ptr %3, align 8
  br label %18

12:                                               ; preds = %8
  %13 = load i64, ptr %5, align 8
  %14 = inttoptr i64 %13 to ptr
  store ptr %14, ptr %3, align 8
  br label %18

15:                                               ; preds = %2
  %16 = load i64, ptr %5, align 8
  %17 = getelementptr inbounds [8 x %struct.lxb_ns_data_t], ptr @lxb_ns_res_data, i64 0, i64 %16
  store ptr %17, ptr %3, align 8
  br label %18

18:                                               ; preds = %15, %12, %11
  %19 = load ptr, ptr %3, align 8
  ret ptr %19
}

; Function Attrs: nounwind uwtable
define hidden ptr @lxb_ns_by_id(ptr noundef %0, i64 noundef %1, ptr noundef %2) #0 {
  %4 = alloca ptr, align 8
  %5 = alloca ptr, align 8
  %6 = alloca i64, align 8
  %7 = alloca ptr, align 8
  %8 = alloca ptr, align 8
  store ptr %0, ptr %5, align 8
  store i64 %1, ptr %6, align 8
  store ptr %2, ptr %7, align 8
  %9 = load ptr, ptr %5, align 8
  %10 = load i64, ptr %6, align 8
  %11 = call ptr @lxb_ns_data_by_id(ptr noundef %9, i64 noundef %10)
  store ptr %11, ptr %8, align 8
  %12 = load ptr, ptr %8, align 8
  %13 = icmp eq ptr %12, null
  br i1 %13, label %14, label %20

14:                                               ; preds = %3
  %15 = load ptr, ptr %7, align 8
  %16 = icmp ne ptr %15, null
  br i1 %16, label %17, label %19

17:                                               ; preds = %14
  %18 = load ptr, ptr %7, align 8
  store i64 0, ptr %18, align 8
  br label %19

19:                                               ; preds = %17, %14
  store ptr null, ptr %4, align 8
  br label %33

20:                                               ; preds = %3
  %21 = load ptr, ptr %7, align 8
  %22 = icmp ne ptr %21, null
  br i1 %22, label %23, label %29

23:                                               ; preds = %20
  %24 = load ptr, ptr %8, align 8
  %25 = getelementptr inbounds %struct.lxb_ns_data_t, ptr %24, i32 0, i32 0
  %26 = getelementptr inbounds %struct.lexbor_hash_entry, ptr %25, i32 0, i32 1
  %27 = load i64, ptr %26, align 8
  %28 = load ptr, ptr %7, align 8
  store i64 %27, ptr %28, align 8
  br label %29

29:                                               ; preds = %23, %20
  %30 = load ptr, ptr %8, align 8
  %31 = getelementptr inbounds %struct.lxb_ns_data_t, ptr %30, i32 0, i32 0
  %32 = call ptr @lexbor_hash_entry_str(ptr noundef %31)
  store ptr %32, ptr %4, align 8
  br label %33

33:                                               ; preds = %29, %19
  %34 = load ptr, ptr %4, align 8
  ret ptr %34
}