; Function Attrs: mustprogress nofree norecurse nosync nounwind willreturn memory(read, argmem: readwrite, inaccessiblemem: none) uwtable
define hidden ptr @lxb_ns_by_id(ptr nocapture noundef readnone %0, i64 noundef %1, ptr noundef writeonly %2) local_unnamed_addr #2 {
  %4 = icmp ugt i64 %1, 7
  %5 = getelementptr inbounds [8 x %struct.lxb_ns_data_t], ptr @lxb_ns_res_data, i64 0, i64 %1
  %6 = icmp eq i64 %1, 8
  %7 = inttoptr i64 %1 to ptr
  %spec.select.i = select i1 %6, ptr null, ptr %7
  %.0.i = select i1 %4, ptr %spec.select.i, ptr %5
  %8 = icmp eq ptr %.0.i, null
  %.not11 = icmp eq ptr %2, null
  br i1 %8, label %9, label %11

9:                                                ; preds = %3
  br i1 %.not11, label %lexbor_hash_entry_str.exit, label %10

10:                                               ; preds = %9
  store i64 0, ptr %2, align 8
  br label %lexbor_hash_entry_str.exit

11:                                               ; preds = %3
  %.phi.trans.insert = getelementptr inbounds i8, ptr %.0.i, i64 24
  %.pre = load i64, ptr %.phi.trans.insert, align 8
  br i1 %.not11, label %._crit_edge, label %12

12:                                               ; preds = %11
  store i64 %.pre, ptr %2, align 8
  br label %._crit_edge

._crit_edge:                                      ; preds = %11, %12
  %13 = icmp ult i64 %.pre, 17
  br i1 %13, label %lexbor_hash_entry_str.exit, label %14

14:                                               ; preds = %._crit_edge
  %15 = load ptr, ptr %.0.i, align 8
  br label %lexbor_hash_entry_str.exit

lexbor_hash_entry_str.exit:                       ; preds = %14, %._crit_edge, %9, %10
  %.0 = phi ptr [ null, %10 ], [ null, %9 ], [ %15, %14 ], [ %.0.i, %._crit_edge ]
  ret ptr %.0
}